target datalayout = "e-m:e-p270:32:32-p271:32:32-p272:64:64-i64:64-i128:128-f80:128-n8:16:32:64-S128"
target triple = "x86_64-pc-linux-gnu"

@libctx = internal global ptr null, align 8
@.str.14 = private unnamed_addr constant [29 x i8] c"../openssl/test/sslapitest.c\00", align 1
@certsdir = internal global ptr null, align 8
@.str.223 = private unnamed_addr constant [2 x i8] c"1\00", align 1
@.str.371 = private unnamed_addr constant [9 x i8] c"leaf.key\00", align 1
@.str.386 = private unnamed_addr constant [15 x i8] c"leaf-chain.pem\00", align 1
@.str.387 = private unnamed_addr constant [60 x i8] c"ssl_ctx = SSL_CTX_new_ex(libctx, NULL, TLS_server_method())\00", align 1
@.str.388 = private unnamed_addr constant [23 x i8] c"ssl = SSL_new(ssl_ctx)\00", align 1
@.str.389 = private unnamed_addr constant [48 x i8] c"SSL_use_certificate_chain_file(ssl, leaf_chain)\00", align 1
@.str.390 = private unnamed_addr constant [53 x i8] c"SSL_use_PrivateKey_file(ssl, skey, SSL_FILETYPE_PEM)\00", align 1
@.str.391 = private unnamed_addr constant [27 x i8] c"SSL_check_private_key(ssl)\00", align 1
@.str.392 = private unnamed_addr constant [85 x i8] c"SSL_build_cert_chain(ssl, SSL_BUILD_CHAIN_FLAG_NO_ROOT | SSL_BUILD_CHAIN_FLAG_CHECK)\00", align 1

; Function Attrs: nounwind uwtable
define internal i32 @test_ssl_build_cert_chain() #0 {
  %1 = alloca i32, align 4
  %2 = alloca ptr, align 8
  %3 = alloca ptr, align 8
  %4 = alloca ptr, align 8
  %5 = alloca ptr, align 8
  call void @llvm.lifetime.start.p0(i64 4, ptr %1) #9
  store i32 0, ptr %1, align 4, !tbaa !13
  call void @llvm.lifetime.start.p0(i64 8, ptr %2) #9
  store ptr null, ptr %2, align 8, !tbaa !19
  call void @llvm.lifetime.start.p0(i64 8, ptr %3) #9
  store ptr null, ptr %3, align 8, !tbaa !21
  call void @llvm.lifetime.start.p0(i64 8, ptr %4) #9
  %6 = load ptr, ptr @certsdir, align 8, !tbaa !11
  %7 = call ptr @test_mk_file_path(ptr noundef %6, ptr noundef @.str.371)
  store ptr %7, ptr %4, align 8, !tbaa !11
  call void @llvm.lifetime.start.p0(i64 8, ptr %5) #9
  %8 = load ptr, ptr @certsdir, align 8, !tbaa !11
  %9 = call ptr @test_mk_file_path(ptr noundef %8, ptr noundef @.str.386)
  store ptr %9, ptr %5, align 8, !tbaa !11
  %10 = load ptr, ptr @libctx, align 8, !tbaa !4
  %11 = call ptr @TLS_server_method()
  %12 = call ptr @SSL_CTX_new_ex(ptr noundef %10, ptr noundef null, ptr noundef %11)
  store ptr %12, ptr %2, align 8, !tbaa !19
  %13 = call i32 @test_ptr(ptr noundef @.str.14, i32 noundef 652, ptr noundef @.str.387, ptr noundef %12)
  %14 = icmp ne i32 %13, 0
  br i1 %14, label %16, label %15

15:                                               ; preds = %0
  br label %49

16:                                               ; preds = %0
  %17 = load ptr, ptr %2, align 8, !tbaa !19
  %18 = call ptr @SSL_new(ptr noundef %17)
  store ptr %18, ptr %3, align 8, !tbaa !21
  %19 = call i32 @test_ptr(ptr noundef @.str.14, i32 noundef 654, ptr noundef @.str.388, ptr noundef %18)
  %20 = icmp ne i32 %19, 0
  br i1 %20, label %22, label %21

21:                                               ; preds = %16
  br label %49

22:                                               ; preds = %16
  %23 = load ptr, ptr %3, align 8, !tbaa !21
  %24 = load ptr, ptr %5, align 8, !tbaa !11
  %25 = call i32 @SSL_use_certificate_chain_file(ptr noundef %23, ptr noundef %24)
  %26 = call i32 @test_int_eq(ptr noundef @.str.14, i32 noundef 657, ptr noundef @.str.389, ptr noundef @.str.223, i32 noundef %25, i32 noundef 1)
  %27 = icmp ne i32 %26, 0
  br i1 %27, label %28, label %39

28:                                               ; preds = %22
  %29 = load ptr, ptr %3, align 8, !tbaa !21
  %30 = load ptr, ptr %4, align 8, !tbaa !11
  %31 = call i32 @SSL_use_PrivateKey_file(ptr noundef %29, ptr noundef %30, i32 noundef 1)
  %32 = call i32 @test_int_eq(ptr noundef @.str.14, i32 noundef 658, ptr noundef @.str.390, ptr noundef @.str.223, i32 noundef %31, i32 noundef 1)
  %33 = icmp ne i32 %32, 0
  br i1 %33, label %34, label %39

34:                                               ; preds = %28
  %35 = load ptr, ptr %3, align 8, !tbaa !21
  %36 = call i32 @SSL_check_private_key(ptr noundef %35)
  %37 = call i32 @test_int_eq(ptr noundef @.str.14, i32 noundef 659, ptr noundef @.str.391, ptr noundef @.str.223, i32 noundef %36, i32 noundef 1)
  %38 = icmp ne i32 %37, 0
  br i1 %38, label %40, label %39

39:                                               ; preds = %34, %28, %22
  br label %49

40:                                               ; preds = %34
  %41 = load ptr, ptr %3, align 8, !tbaa !21
  %42 = call i64 @SSL_ctrl(ptr noundef %41, i32 noundef 105, i64 noundef 6, ptr noundef null)
  %43 = icmp ne i64 %42, 0
  %44 = zext i1 %43 to i32
  %45 = call i32 @test_true(ptr noundef @.str.14, i32 noundef 662, ptr noundef @.str.392, i32 noundef %44)
  %46 = icmp ne i32 %45, 0
  br i1 %46, label %48, label %47

47:                                               ; preds = %40
  br label %49

48:                                               ; preds = %40
  store i32 1, ptr %1, align 4, !tbaa !13
  br label %49

49:                                               ; preds = %48, %47, %39, %21, %15
  %50 = load ptr, ptr %3, align 8, !tbaa !21
  call void @SSL_free(ptr noundef %50)
  %51 = load ptr, ptr %2, align 8, !tbaa !19
  call void @SSL_CTX_free(ptr noundef %51)
  %52 = load ptr, ptr %5, align 8, !tbaa !11
  call void @CRYPTO_free(ptr noundef %52, ptr noundef @.str.14, i32 noundef 668)
  %53 = load ptr, ptr %4, align 8, !tbaa !11
  call void @CRYPTO_free(ptr noundef %53, ptr noundef @.str.14, i32 noundef 669)
  %54 = load i32, ptr %1, align 4, !tbaa !13
  call void @llvm.lifetime.end.p0(i64 8, ptr %5) #9
  call void @llvm.lifetime.end.p0(i64 8, ptr %4) #9
  call void @llvm.lifetime.end.p0(i64 8, ptr %3) #9
  call void @llvm.lifetime.end.p0(i64 8, ptr %2) #9
  call void @llvm.lifetime.end.p0(i64 4, ptr %1) #9
  ret i32 %54
}