; Function Attrs: nounwind uwtable
define internal range(i32 0, 2) i32 @test_ssl_build_cert_chain() #1 {
  %1 = load ptr, ptr @certsdir, align 8, !tbaa !11
  %2 = tail call ptr @test_mk_file_path(ptr noundef %1, ptr noundef nonnull @.str.371) #24
  %3 = load ptr, ptr @certsdir, align 8, !tbaa !11
  %4 = tail call ptr @test_mk_file_path(ptr noundef %3, ptr noundef nonnull @.str.386) #24
  %5 = load ptr, ptr @libctx, align 8, !tbaa !4
  %6 = tail call ptr @TLS_server_method() #24
  %7 = tail call ptr @SSL_CTX_new_ex(ptr noundef %5, ptr noundef null, ptr noundef %6) #24
  %8 = tail call i32 @test_ptr(ptr noundef nonnull @.str.14, i32 noundef 652, ptr noundef nonnull @.str.387, ptr noundef %7) #24
  %.not = icmp eq i32 %8, 0
  br i1 %.not, label %26, label %9

9:                                                ; preds = %0
  %10 = tail call ptr @SSL_new(ptr noundef %7) #24
  %11 = tail call i32 @test_ptr(ptr noundef nonnull @.str.14, i32 noundef 654, ptr noundef nonnull @.str.388, ptr noundef %10) #24
  %.not12 = icmp eq i32 %11, 0
  br i1 %.not12, label %26, label %12

12:                                               ; preds = %9
  %13 = tail call i32 @SSL_use_certificate_chain_file(ptr noundef %10, ptr noundef %4) #24
  %14 = tail call i32 @test_int_eq(ptr noundef nonnull @.str.14, i32 noundef 657, ptr noundef nonnull @.str.389, ptr noundef nonnull @.str.223, i32 noundef %13, i32 noundef 1) #24
  %.not13 = icmp eq i32 %14, 0
  br i1 %.not13, label %26, label %15

15:                                               ; preds = %12
  %16 = tail call i32 @SSL_use_PrivateKey_file(ptr noundef %10, ptr noundef %2, i32 noundef 1) #24
  %17 = tail call i32 @test_int_eq(ptr noundef nonnull @.str.14, i32 noundef 658, ptr noundef nonnull @.str.390, ptr noundef nonnull @.str.223, i32 noundef %16, i32 noundef 1) #24
  %.not14 = icmp eq i32 %17, 0
  br i1 %.not14, label %26, label %18

18:                                               ; preds = %15
  %19 = tail call i32 @SSL_check_private_key(ptr noundef %10) #24
  %20 = tail call i32 @test_int_eq(ptr noundef nonnull @.str.14, i32 noundef 659, ptr noundef nonnull @.str.391, ptr noundef nonnull @.str.223, i32 noundef %19, i32 noundef 1) #24
  %.not15 = icmp eq i32 %20, 0
  br i1 %.not15, label %26, label %21

21:                                               ; preds = %18
  %22 = tail call i64 @SSL_ctrl(ptr noundef %10, i32 noundef 105, i64 noundef 6, ptr noundef null) #24
  %23 = icmp ne i64 %22, 0
  %24 = zext i1 %23 to i32
  %25 = tail call i32 @test_true(ptr noundef nonnull @.str.14, i32 noundef 662, ptr noundef nonnull @.str.392, i32 noundef %24) #24
  %.not16 = icmp ne i32 %25, 0
  %spec.select = zext i1 %.not16 to i32
  br label %26

26:                                               ; preds = %21, %12, %15, %18, %9, %0
  %.011 = phi ptr [ %10, %18 ], [ %10, %15 ], [ %10, %12 ], [ %10, %9 ], [ null, %0 ], [ %10, %21 ]
  %.0 = phi i32 [ 0, %18 ], [ 0, %15 ], [ 0, %12 ], [ 0, %9 ], [ 0, %0 ], [ %spec.select, %21 ]
  tail call void @SSL_free(ptr noundef %.011) #24
  tail call void @SSL_CTX_free(ptr noundef %7) #24
  tail call void @CRYPTO_free(ptr noundef %4, ptr noundef nonnull @.str.14, i32 noundef 668) #24
  tail call void @CRYPTO_free(ptr noundef %2, ptr noundef nonnull @.str.14, i32 noundef 669) #24
  ret i32 %.0
}